Certificate:
    Data:
        Version: 3 (0x2)
        Serial Number:
            f8:7f:78:94:4a:7c:04:5f:19:74:92:39:0e:17:8a:94
    Signature Algorithm: sha256WithRSAEncryption
        Issuer: CN=myca.com
        Validity
            Not Before: Jun 12 05:43:05 2020 GMT
            Not After : Sep 15 05:43:05 2022 GMT
        Subject: CN=server
        Subject Public Key Info:
            Public Key Algorithm: rsaEncryption
                Public-Key: (2048 bit)
                Modulus:
                    00:ad:90:31:db:05:4e:1e:cb:b8:4d:50:5c:32:cf:
                    d9:34:f7:7f:7c:a0:1d:56:2a:e1:2a:a3:9c:5d:54:
                    47:7f:f0:11:06:79:5e:9b:b3:bf:c4:62:59:1d:27:
                    ab:ac:ee:69:89:06:40:b7:18:41:2c:df:28:6a:e2:
                    07:40:dc:49:e4:df:79:10:cd:dc:c1:e8:57:17:8e:
                    a8:29:96:48:e8:a3:90:6f:42:13:68:16:36:2f:99:
                    4a:05:83:3e:b5:9c:cf:98:e4:7b:7d:b3:62:26:c6:
                    60:4b:87:67:7a:cb:95:97:6d:5e:0f:26:c8:26:02:
                    b4:d1:0a:4b:6d:03:1d:54:57:79:ff:59:1c:0e:4f:
                    9c:d6:03:d8:5c:f0:5d:15:4c:08:0b:65:f9:bd:dd:
                    74:27:d1:60:2f:b2:1a:e0:15:2a:b8:d2:85:a1:b9:
                    d7:ad:c0:b8:75:b6:ae:31:cf:af:1d:9f:5f:0d:19:
                    93:a0:9c:50:a1:34:2e:cd:2e:89:06:01:d3:fd:07:
                    31:6d:51:7d:3d:77:4d:4b:a2:5b:0d:e2:2b:77:fc:
                    e1:21:ce:58:6a:dd:7e:3b:ac:bf:b7:41:bc:a1:dc:
                    47:08:9d:f6:38:e0:57:b7:7b:62:78:a4:cd:e8:33:
                    93:d5:59:2f:16:14:7a:ed:29:d4:a0:ee:f5:96:f8:
                    db:23
                Exponent: 65537 (0x10001)
        X509v3 extensions:
            X509v3 Basic Constraints: 
                CA:FALSE
            X509v3 Subject Key Identifier: 
                DA:89:82:FF:B4:6F:68:1F:E9:C6:E1:C6:D3:57:E8:07:1A:73:4D:66
            X509v3 Authority Key Identifier: 
                keyid:6F:D2:86:88:72:26:FC:21:36:4D:8E:EB:D6:C5:A3:D3:96:C3:08:5F
                DirName:/CN=myca.com
                serial:BD:7C:CD:9E:F3:D4:1C:9F

            X509v3 Extended Key Usage: 
                TLS Web Server Authentication
            X509v3 Key Usage: 
                Digital Signature, Key Encipherment
            X509v3 Subject Alternative Name: 
                DNS:server
    Signature Algorithm: sha256WithRSAEncryption
         1e:63:18:dd:3a:8b:a7:8a:2e:1b:e0:5b:2c:52:77:b9:64:42:
         b3:2b:bc:18:fb:e9:2b:34:12:f5:ce:3a:78:92:21:cd:23:76:
         e5:cb:2f:13:0b:72:a0:67:6a:b7:7b:f5:9a:5b:a4:d7:3e:39:
         3c:99:44:a9:15:6f:a4:3a:28:29:f8:6a:41:c1:49:09:c3:66:
         f3:d0:7b:80:a0:23:6f:c9:2c:65:e6:41:7c:9f:fa:67:d2:eb:
         4d:b4:cd:8f:77:fe:32:be:6e:94:31:8b:cc:b0:68:33:af:1d:
         58:0d:de:14:37:e2:6b:b0:ad:c5:45:bd:31:82:70:7f:a5:76:
         c3:e5:5d:03:49:76:00:29:d9:ca:9c:11:11:7b:2e:7b:6f:44:
         9e:f0:27:5a:c2:c1:3b:73:d7:0c:b4:8e:c8:d9:b3:4d:48:f8:
         ec:75:eb:f2:8c:0a:9a:83:2c:65:ac:81:81:a4:aa:fe:ff:d5:
         ce:c9:cb:f3:7e:02:c3:96:59:df:8f:ab:9e:21:33:4a:f0:ab:
         02:b6:78:42:c1:bd:58:3c:b8:73:e3:9e:21:ac:ca:9c:86:3e:
         d7:b8:be:16:1b:c4:c9:40:59:c1:0e:eb:90:10:16:47:a5:6d:
         34:51:7f:72:9f:a1:30:42:ab:af:b8:50:a5:ad:7f:1f:e7:ed:
         81:fb:5d:3b
-----BEGIN CERTIFICATE-----
MIIDVzCCAj+gAwIBAgIRAPh/eJRKfARfGXSSOQ4XipQwDQYJKoZIhvcNAQELBQAw
EzERMA8GA1UEAwwIbXljYS5jb20wHhcNMjAwNjEyMDU0MzA1WhcNMjIwOTE1MDU0
MzA1WjARMQ8wDQYDVQQDDAZzZXJ2ZXIwggEiMA0GCSqGSIb3DQEBAQUAA4IBDwAw
ggEKAoIBAQCtkDHbBU4ey7hNUFwyz9k09398oB1WKuEqo5xdVEd/8BEGeV6bs7/E
YlkdJ6us7mmJBkC3GEEs3yhq4gdA3Enk33kQzdzB6FcXjqgplkjoo5BvQhNoFjYv
mUoFgz61nM+Y5Ht9s2ImxmBLh2d6y5WXbV4PJsgmArTRCkttAx1UV3n/WRwOT5zW
A9hc8F0VTAgLZfm93XQn0WAvshrgFSq40oWhudetwLh1tq4xz68dn18NGZOgnFCh
NC7NLokGAdP9BzFtUX09d01LolsN4it3/OEhzlhq3X47rL+3Qbyh3EcInfY44Fe3
e2J4pM3oM5PVWS8WFHrtKdSg7vWW+NsjAgMBAAGjgacwgaQwCQYDVR0TBAIwADAd
BgNVHQ4EFgQU2omC/7RvaB/pxuHG01foBxpzTWYwQwYDVR0jBDwwOoAUb9KGiHIm
/CE2TY7r1sWj05bDCF+hF6QVMBMxETAPBgNVBAMMCG15Y2EuY29tggkAvXzNnvPU
HJ8wEwYDVR0lBAwwCgYIKwYBBQUHAwEwCwYDVR0PBAQDAgWgMBEGA1UdEQQKMAiC
BnNlcnZlcjANBgkqhkiG9w0BAQsFAAOCAQEAHmMY3TqLp4ouG+BbLFJ3uWRCsyu8
GPvpKzQS9c46eJIhzSN25csvEwtyoGdqt3v1mluk1z45PJlEqRVvpDooKfhqQcFJ
CcNm89B7gKAjb8ksZeZBfJ/6Z9LrTbTNj3f+Mr5ulDGLzLBoM68dWA3eFDfia7Ct
xUW9MYJwf6V2w+VdA0l2ACnZypwREXsue29EnvAnWsLBO3PXDLSOyNmzTUj47HXr
8owKmoMsZayBgaSq/v/VzsnL834Cw5ZZ34+rniEzSvCrArZ4QsG9WDy4c+OeIazK
nIY+17i+FhvEyUBZwQ7rkBAWR6VtNFF/cp+hMEKrr7hQpa1/H+ftgftdOw==
-----END CERTIFICATE-----
