Certificate:
    Data:
        Version: 3 (0x2)
        Serial Number:
            61:87:2f:ec:29:d4:d4:ea:b9:35:d4:38:ec:7c:1d:d9
    Signature Algorithm: sha256WithRSAEncryption
        Issuer: CN=myca.com
        Validity
            Not Before: Jun 12 05:43:51 2020 GMT
            Not After : Sep 15 05:43:51 2022 GMT
        Subject: CN=client
        Subject Public Key Info:
            Public Key Algorithm: rsaEncryption
                Public-Key: (2048 bit)
                Modulus:
                    00:ce:ab:c8:67:4c:32:db:22:20:7f:51:95:5c:6e:
                    1a:31:0b:fe:9b:bc:78:10:46:d1:9a:4e:2f:5a:dd:
                    8a:05:d7:f0:f8:23:77:e3:68:e9:c8:c6:b7:ee:81:
                    c4:3b:18:7e:d9:d4:c2:93:b5:13:ad:b4:29:f1:bb:
                    00:ee:e1:f2:db:a9:de:0b:c8:98:ad:63:d5:3f:22:
                    8f:14:74:1e:84:cc:33:5c:6d:dc:bb:8d:79:31:67:
                    e3:0a:84:7a:05:3a:ca:fa:f8:ef:4e:4a:25:b4:cc:
                    f8:04:f1:32:50:b5:e4:f3:42:c4:4f:6d:de:c7:89:
                    f7:a8:b6:2d:ec:a9:e8:7d:f1:52:46:e3:93:18:f7:
                    3e:8f:54:28:55:13:d2:32:45:c8:4b:36:97:78:32:
                    78:9f:d9:6b:84:38:ea:db:4e:80:0e:55:38:3d:ce:
                    ab:08:d9:58:3a:63:0b:ed:d0:a3:22:34:1f:77:0b:
                    54:de:59:a1:24:8a:fc:a3:22:ce:f8:f6:7e:7f:a3:
                    b5:8d:a0:41:43:89:c9:41:98:f4:65:63:83:93:0c:
                    13:6f:88:1d:62:18:d7:ff:88:90:c1:e2:22:a8:a9:
                    28:11:cb:16:86:68:a3:3d:de:5a:11:79:b6:1c:ad:
                    c9:96:f6:90:0c:70:21:74:70:2d:09:81:c0:f5:2e:
                    9c:d1
                Exponent: 65537 (0x10001)
        X509v3 extensions:
            X509v3 Basic Constraints: 
                CA:FALSE
            X509v3 Subject Key Identifier: 
                77:85:25:9C:6D:11:F1:FC:31:AA:C9:A3:7A:BE:55:6A:C6:F8:D5:9B
            X509v3 Authority Key Identifier: 
                keyid:6F:D2:86:88:72:26:FC:21:36:4D:8E:EB:D6:C5:A3:D3:96:C3:08:5F
                DirName:/CN=myca.com
                serial:BD:7C:CD:9E:F3:D4:1C:9F

            X509v3 Extended Key Usage: 
                TLS Web Client Authentication
            X509v3 Key Usage: 
                Digital Signature
    Signature Algorithm: sha256WithRSAEncryption
         00:e0:21:c2:2b:ef:51:9f:0a:fc:09:1f:6f:a3:5d:d3:83:6c:
         d2:06:62:9c:5a:92:f0:62:7e:af:7f:b7:a6:99:a6:0c:f0:a7:
         e8:42:91:28:34:f8:6c:d9:b9:de:c5:e5:2c:26:21:5c:be:98:
         3d:73:83:ad:c8:25:c0:7b:ff:b9:0f:ac:40:98:ce:6d:33:67:
         dc:f9:93:d4:47:9c:a6:8e:67:b8:18:3b:cb:92:9e:df:a4:79:
         91:02:a1:16:a0:3e:17:37:3e:3f:98:d6:db:66:dc:bf:8d:67:
         34:e0:fc:0f:75:5b:28:2c:15:e9:d9:3d:70:9c:16:04:74:2a:
         23:dc:b1:82:3f:20:ad:86:79:0c:c6:11:d7:d9:56:bc:58:16:
         ff:96:fc:fb:1c:d2:45:97:55:8b:e6:0a:2c:02:43:dc:16:11:
         46:8f:2d:d5:30:36:10:6e:1a:c7:c4:d0:ef:39:99:c4:ca:99:
         fd:e3:3f:0a:74:bc:13:d9:f1:60:b8:09:90:ff:49:55:4a:b4:
         2c:fe:02:f1:a2:52:01:7c:8c:33:43:75:60:20:98:f6:66:0a:
         48:9a:20:bf:c8:17:59:54:c2:7d:46:49:05:29:1c:0c:c7:a3:
         3a:0c:40:d0:3c:75:9c:c7:ec:ca:b7:5a:08:5b:3c:eb:b8:b1:
         70:36:2f:fd
-----BEGIN CERTIFICATE-----
MIIDQzCCAiugAwIBAgIQYYcv7CnU1Oq5NdQ47Hwd2TANBgkqhkiG9w0BAQsFADAT
MREwDwYDVQQDDAhteWNhLmNvbTAeFw0yMDA2MTIwNTQzNTFaFw0yMjA5MTUwNTQz
NTFaMBExDzANBgNVBAMMBmNsaWVudDCCASIwDQYJKoZIhvcNAQEBBQADggEPADCC
AQoCggEBAM6ryGdMMtsiIH9RlVxuGjEL/pu8eBBG0ZpOL1rdigXX8Pgjd+No6cjG
t+6BxDsYftnUwpO1E620KfG7AO7h8tup3gvImK1j1T8ijxR0HoTMM1xt3LuNeTFn
4wqEegU6yvr4705KJbTM+ATxMlC15PNCxE9t3seJ96i2Leyp6H3xUkbjkxj3Po9U
KFUT0jJFyEs2l3gyeJ/Za4Q46ttOgA5VOD3OqwjZWDpjC+3QoyI0H3cLVN5ZoSSK
/KMizvj2fn+jtY2gQUOJyUGY9GVjg5MME2+IHWIY1/+IkMHiIqipKBHLFoZooz3e
WhF5thytyZb2kAxwIXRwLQmBwPUunNECAwEAAaOBlDCBkTAJBgNVHRMEAjAAMB0G
A1UdDgQWBBR3hSWcbRHx/DGqyaN6vlVqxvjVmzBDBgNVHSMEPDA6gBRv0oaIcib8
ITZNjuvWxaPTlsMIX6EXpBUwEzERMA8GA1UEAwwIbXljYS5jb22CCQC9fM2e89Qc
nzATBgNVHSUEDDAKBggrBgEFBQcDAjALBgNVHQ8EBAMCB4AwDQYJKoZIhvcNAQEL
BQADggEBAADgIcIr71GfCvwJH2+jXdODbNIGYpxakvBifq9/t6aZpgzwp+hCkSg0
+GzZud7F5SwmIVy+mD1zg63IJcB7/7kPrECYzm0zZ9z5k9RHnKaOZ7gYO8uSnt+k
eZECoRagPhc3Pj+Y1ttm3L+NZzTg/A91WygsFenZPXCcFgR0KiPcsYI/IK2GeQzG
EdfZVrxYFv+W/Psc0kWXVYvmCiwCQ9wWEUaPLdUwNhBuGsfE0O85mcTKmf3jPwp0
vBPZ8WC4CZD/SVVKtCz+AvGiUgF8jDNDdWAgmPZmCkiaIL/IF1lUwn1GSQUpHAzH
ozoMQNA8dZzH7Mq3WghbPOu4sXA2L/0=
-----END CERTIFICATE-----
